target datalayout = "e-m:e-p270:32:32-p271:32:32-p272:64:64-i64:64-i128:128-f80:128-n8:16:32:64-S128"
target triple = "x86_64-pc-linux-gnu"

%struct.mbedtls_ssl_session = type { i8, i8, i8, i32, i64, i32, i64, [32 x i8], [48 x i8], ptr, i32, ptr, i64, i32, i64, i32, i8, i8, [48 x i8], ptr, i64, i32, %struct.mbedtls_ssl_tls13_application_secrets }
%struct.mbedtls_ssl_tls13_application_secrets = type { [64 x i8], [64 x i8], [64 x i8], [64 x i8] }

; Function Attrs: nounwind uwtable
define internal void @ssl_clear_peer_cert(ptr noundef %0) #0 {
  %2 = alloca ptr, align 8
  store ptr %0, ptr %2, align 8, !tbaa !50
  %3 = load ptr, ptr %2, align 8, !tbaa !50
  %4 = getelementptr inbounds nuw %struct.mbedtls_ssl_session, ptr %3, i32 0, i32 9
  %5 = load ptr, ptr %4, align 8, !tbaa !55
  %6 = icmp ne ptr %5, null
  br i1 %6, label %7, label %16

7:                                                ; preds = %1
  %8 = load ptr, ptr %2, align 8, !tbaa !50
  %9 = getelementptr inbounds nuw %struct.mbedtls_ssl_session, ptr %8, i32 0, i32 9
  %10 = load ptr, ptr %9, align 8, !tbaa !55
  call void @mbedtls_x509_crt_free(ptr noundef %10)
  %11 = load ptr, ptr %2, align 8, !tbaa !50
  %12 = getelementptr inbounds nuw %struct.mbedtls_ssl_session, ptr %11, i32 0, i32 9
  %13 = load ptr, ptr %12, align 8, !tbaa !55
  call void @free(ptr noundef %13) #11
  %14 = load ptr, ptr %2, align 8, !tbaa !50
  %15 = getelementptr inbounds nuw %struct.mbedtls_ssl_session, ptr %14, i32 0, i32 9
  store ptr null, ptr %15, align 8, !tbaa !55
  br label %16

16:                                               ; preds = %7, %1
  ret void
}

; Function Attrs: nounwind uwtable
define hidden void @mbedtls_ssl_session_free(ptr noundef %0) #0 {
  %2 = alloca ptr, align 8
  store ptr %0, ptr %2, align 8, !tbaa !50
  %3 = load ptr, ptr %2, align 8, !tbaa !50
  %4 = icmp eq ptr %3, null
  br i1 %4, label %5, label %6

5:                                                ; preds = %1
  br label %15

6:                                                ; preds = %1
  %7 = load ptr, ptr %2, align 8, !tbaa !50
  call void @ssl_clear_peer_cert(ptr noundef %7)
  %8 = load ptr, ptr %2, align 8, !tbaa !50
  %9 = getelementptr inbounds nuw %struct.mbedtls_ssl_session, ptr %8, i32 0, i32 19
  %10 = load ptr, ptr %9, align 8, !tbaa !54
  call void @free(ptr noundef %10) #11
  %11 = load ptr, ptr %2, align 8, !tbaa !50
  %12 = getelementptr inbounds nuw %struct.mbedtls_ssl_session, ptr %11, i32 0, i32 11
  %13 = load ptr, ptr %12, align 8, !tbaa !51
  call void @free(ptr noundef %13) #11
  %14 = load ptr, ptr %2, align 8, !tbaa !50
  call void @mbedtls_platform_zeroize(ptr noundef %14, i64 noundef 496)
  br label %15

15:                                               ; preds = %6, %5
  ret void
}

; Function Attrs: nounwind uwtable
define hidden i32 @mbedtls_ssl_session_load(ptr noundef %0, ptr noundef %1, i64 noundef %2) #0 {
  %4 = alloca ptr, align 8
  %5 = alloca ptr, align 8
  %6 = alloca i64, align 8
  %7 = alloca i32, align 4
  store ptr %0, ptr %4, align 8, !tbaa !50
  store ptr %1, ptr %5, align 8, !tbaa !29
  store i64 %2, ptr %6, align 8, !tbaa !8
  call void @llvm.lifetime.start.p0(i64 4, ptr %7) #11
  %8 = load ptr, ptr %4, align 8, !tbaa !50
  %9 = load ptr, ptr %5, align 8, !tbaa !29
  %10 = load i64, ptr %6, align 8, !tbaa !8
  %11 = call i32 @ssl_session_load(ptr noundef %8, i8 noundef zeroext 0, ptr noundef %9, i64 noundef %10)
  store i32 %11, ptr %7, align 4, !tbaa !10
  %12 = load i32, ptr %7, align 4, !tbaa !10
  %13 = icmp ne i32 %12, 0
  br i1 %13, label %14, label %16

14:                                               ; preds = %3
  %15 = load ptr, ptr %4, align 8, !tbaa !50
  call void @mbedtls_ssl_session_free(ptr noundef %15)
  br label %16

16:                                               ; preds = %14, %3
  %17 = load i32, ptr %7, align 4, !tbaa !10
  call void @llvm.lifetime.end.p0(i64 4, ptr %7) #11
  ret i32 %17
}