; Function Attrs: nounwind uwtable
define hidden i32 @mbedtls_ssl_session_load(ptr noundef %0, ptr noundef %1, i64 noundef %2) local_unnamed_addr #1 {
  %4 = tail call fastcc i32 @ssl_session_load(ptr noundef %0, i8 noundef zeroext 0, ptr noundef %1, i64 noundef %2)
  %.not = icmp eq i32 %4, 0
  %5 = icmp eq ptr %0, null
  %or.cond = or i1 %5, %.not
  br i1 %or.cond, label %mbedtls_ssl_session_free.exit, label %6

6:                                                ; preds = %3
  %7 = getelementptr inbounds nuw i8, ptr %0, i64 112
  %8 = load ptr, ptr %7, align 8, !tbaa !44
  %.not.i.i = icmp eq ptr %8, null
  br i1 %.not.i.i, label %ssl_clear_peer_cert.exit.i, label %9

9:                                                ; preds = %6
  tail call void @mbedtls_x509_crt_free(ptr noundef nonnull %8) #26
  %10 = load ptr, ptr %7, align 8, !tbaa !44
  tail call void @free(ptr noundef %10) #26
  store ptr null, ptr %7, align 8, !tbaa !44
  br label %ssl_clear_peer_cert.exit.i

ssl_clear_peer_cert.exit.i:                       ; preds = %9, %6
  %11 = getelementptr inbounds nuw i8, ptr %0, i64 216
  %12 = load ptr, ptr %11, align 8, !tbaa !47
  tail call void @free(ptr noundef %12) #26
  %13 = getelementptr inbounds nuw i8, ptr %0, i64 128
  %14 = load ptr, ptr %13, align 8, !tbaa !48
  tail call void @free(ptr noundef %14) #26
  tail call void @mbedtls_platform_zeroize(ptr noundef nonnull %0, i64 noundef 496) #26
  br label %mbedtls_ssl_session_free.exit

mbedtls_ssl_session_free.exit:                    ; preds = %ssl_clear_peer_cert.exit.i, %3
  ret i32 %4
}